; Function Attrs: mustprogress nofree norecurse nosync nounwind willreturn memory(read, inaccessiblemem: none) uwtable
define noundef zeroext i1 @_ZNK7rocksdb22BlockBasedTableBuilder7IsEmptyEv(ptr nocapture noundef nonnull readonly align 8 dereferenceable(24) %this) unnamed_addr #10 align 2 {
entry:
  %rep_ = getelementptr inbounds i8, ptr %this, i64 8
  %0 = load ptr, ptr %rep_, align 8
  %num_entries = getelementptr inbounds i8, ptr %0, i64 1920
  %1 = load i64, ptr %num_entries, align 8
  %cmp = icmp eq i64 %1, 0
  br i1 %cmp, label %land.rhs, label %land.end

land.rhs:                                         ; preds = %entry
  %num_range_deletions = getelementptr inbounds i8, ptr %0, i64 1952
  %2 = load i64, ptr %num_range_deletions, align 8
  %cmp4 = icmp eq i64 %2, 0
  br label %land.end

land.end:                                         ; preds = %land.rhs, %entry
  %3 = phi i1 [ false, %entry ], [ %cmp4, %land.rhs ]
  ret i1 %3
}